; ModuleID = '60/227.c'
source_filename = "60/227.c"
target datalayout = "e-m:e-p270:32:32-p271:32:32-p272:64:64-i64:64-f80:128-n8:16:32:64-S128"
target triple = "x86_64-pc-linux-gnu"

@.str = private unnamed_addr constant [3 x i8] c"%d\00", align 1
@.str.1 = private unnamed_addr constant [6 x i8] c"%d %d\00", align 1
@.str.2 = private unnamed_addr constant [7 x i8] c"\0A%d %d\00", align 1
@.str.3 = private unnamed_addr constant [6 x i8] c"empty\00", align 1

; Function Attrs: noinline nounwind uwtable
define dso_local i32 @main() #0 {
  %1 = alloca i32, align 4
  %2 = alloca i32, align 4
  %3 = alloca i32, align 4
  %4 = alloca i32, align 4
  %5 = alloca i32, align 4
  %6 = alloca i32, align 4
  %7 = alloca i32, align 4
  store i32 0, i32* %1, align 4
  %8 = call i32 (i8*, ...) @__isoc99_scanf(i8* getelementptr inbounds ([3 x i8], [3 x i8]* @.str, i64 0, i64 0), i32* %2)
  store i32 0, i32* %6, align 4
  store i32 2, i32* %5, align 4
  br label %9

9:                                                ; preds = %70, %0
  %10 = load i32, i32* %5, align 4
  %11 = load i32, i32* %2, align 4
  %12 = sub nsw i32 %11, 2
  %13 = icmp sle i32 %10, %12
  br i1 %13, label %14, label %73

14:                                               ; preds = %9
  store i32 2, i32* %7, align 4
  br label %15

15:                                               ; preds = %27, %14
  %16 = load i32, i32* %7, align 4
  %17 = load i32, i32* %5, align 4
  %18 = icmp slt i32 %16, %17
  br i1 %18, label %19, label %30

19:                                               ; preds = %15
  %20 = load i32, i32* %5, align 4
  %21 = load i32, i32* %7, align 4
  %22 = srem i32 %20, %21
  %23 = icmp eq i32 %22, 0
  br i1 %23, label %24, label %25

24:                                               ; preds = %19
  store i32 0, i32* %3, align 4
  br label %30

25:                                               ; preds = %19
  store i32 1, i32* %3, align 4
  br label %26

26:                                               ; preds = %25
  br label %27

27:                                               ; preds = %26
  %28 = load i32, i32* %7, align 4
  %29 = add nsw i32 %28, 1
  store i32 %29, i32* %7, align 4
  br label %15

30:                                               ; preds = %24, %15
  store i32 2, i32* %7, align 4
  br label %31

31:                                               ; preds = %45, %30
  %32 = load i32, i32* %7, align 4
  %33 = load i32, i32* %5, align 4
  %34 = add nsw i32 %33, 2
  %35 = icmp slt i32 %32, %34
  br i1 %35, label %36, label %48

36:                                               ; preds = %31
  %37 = load i32, i32* %5, align 4
  %38 = add nsw i32 %37, 2
  %39 = load i32, i32* %7, align 4
  %40 = srem i32 %38, %39
  %41 = icmp eq i32 %40, 0
  br i1 %41, label %42, label %43

42:                                               ; preds = %36
  store i32 0, i32* %4, align 4
  br label %48

43:                                               ; preds = %36
  store i32 1, i32* %4, align 4
  br label %44

44:                                               ; preds = %43
  br label %45

45:                                               ; preds = %44
  %46 = load i32, i32* %7, align 4
  %47 = add nsw i32 %46, 1
  store i32 %47, i32* %7, align 4
  br label %31

48:                                               ; preds = %42, %31
  %49 = load i32, i32* %3, align 4
  %50 = load i32, i32* %4, align 4
  %51 = mul nsw i32 %49, %50
  %52 = icmp eq i32 %51, 1
  br i1 %52, label %53, label %69

53:                                               ; preds = %48
  %54 = load i32, i32* %6, align 4
  %55 = add nsw i32 %54, 1
  store i32 %55, i32* %6, align 4
  %56 = load i32, i32* %6, align 4
  %57 = icmp eq i32 %56, 1
  br i1 %57, label %58, label %63

58:                                               ; preds = %53
  %59 = load i32, i32* %5, align 4
  %60 = load i32, i32* %5, align 4
  %61 = add nsw i32 %60, 2
  %62 = call i32 (i8*, ...) @printf(i8* getelementptr inbounds ([6 x i8], [6 x i8]* @.str.1, i64 0, i64 0), i32 %59, i32 %61)
  br label %68

63:                                               ; preds = %53
  %64 = load i32, i32* %5, align 4
  %65 = load i32, i32* %5, align 4
  %66 = add nsw i32 %65, 2
  %67 = call i32 (i8*, ...) @printf(i8* getelementptr inbounds ([7 x i8], [7 x i8]* @.str.2, i64 0, i64 0), i32 %64, i32 %66)
  br label %68

68:                                               ; preds = %63, %58
  br label %69

69:                                               ; preds = %68, %48
  br label %70

70:                                               ; preds = %69
  %71 = load i32, i32* %5, align 4
  %72 = add nsw i32 %71, 1
  store i32 %72, i32* %5, align 4
  br label %9

73:                                               ; preds = %9
  %74 = load i32, i32* %6, align 4
  %75 = icmp eq i32 %74, 0
  br i1 %75, label %76, label %78

76:                                               ; preds = %73
  %77 = call i32 (i8*, ...) @printf(i8* getelementptr inbounds ([6 x i8], [6 x i8]* @.str.3, i64 0, i64 0))
  br label %78

78:                                               ; preds = %76, %73
  %79 = call i32 @getchar()
  %80 = call i32 @getchar()
  %81 = load i32, i32* %1, align 4
  ret i32 %81
}

declare dso_local i32 @__isoc99_scanf(i8*, ...) #1

declare dso_local i32 @printf(i8*, ...) #1

declare dso_local i32 @getchar() #1


!llvm.module.flags = !{!0}
!llvm.ident = !{!1}

!0 = !{i32 1, !"wchar_size", i32 4}
!1 = !{!"clang version 10.0.0-4ubuntu1 "}
