; ModuleID = 'source-C-CXX/59/227.c'
source_filename = "source-C-CXX/59/227.c"
target datalayout = "e-m:e-p270:32:32-p271:32:32-p272:64:64-i64:64-f80:128-n8:16:32:64-S128"
target triple = "x86_64-pc-linux-gnu"

%struct._IO_FILE = type { i32, i8*, i8*, i8*, i8*, i8*, i8*, i8*, i8*, i8*, i8*, i8*, %struct._IO_marker*, %struct._IO_FILE*, i32, i32, i64, i16, i8, [1 x i8], i8*, i64, %struct._IO_codecvt*, %struct._IO_wide_data*, %struct._IO_FILE*, i8*, i64, i32, [20 x i8] }
%struct._IO_marker = type opaque
%struct._IO_codecvt = type opaque
%struct._IO_wide_data = type opaque

@.str = private unnamed_addr constant [3 x i8] c"%d\00", align 1
@.str.1 = private unnamed_addr constant [6 x i8] c"%d %d\00", align 1
@.str.2 = private unnamed_addr constant [7 x i8] c"\0A%d %d\00", align 1
@.str.3 = private unnamed_addr constant [6 x i8] c"empty\00", align 1
@stdin = external local_unnamed_addr global %struct._IO_FILE*, align 8

; Function Attrs: nofree nounwind sspstrong uwtable
define dso_local i32 @main() local_unnamed_addr #0 {
  %1 = alloca i32, align 4
  %2 = bitcast i32* %1 to i8*
  call void @llvm.lifetime.start.p0i8(i64 4, i8* nonnull %2) #3
  %3 = call i32 (i8*, ...) @__isoc99_scanf(i8* getelementptr inbounds ([3 x i8], [3 x i8]* @.str, i64 0, i64 0), i32* nonnull %1)
  %4 = load i32, i32* %1, align 4, !tbaa !5
  %5 = icmp slt i32 %4, 4
  br i1 %5, label %47, label %6

6:                                                ; preds = %0, %38
  %7 = phi i32 [ %44, %38 ], [ 4, %0 ]
  %8 = phi i32 [ %39, %38 ], [ 0, %0 ]
  %9 = phi i32 [ %40, %38 ], [ 2, %0 ]
  %10 = phi i32 [ %20, %38 ], [ undef, %0 ]
  %11 = icmp ugt i32 %9, 2
  br i1 %11, label %14, label %19

12:                                               ; preds = %14
  %13 = icmp eq i32 %18, %9
  br i1 %13, label %19, label %14, !llvm.loop !9

14:                                               ; preds = %6, %12
  %15 = phi i32 [ %18, %12 ], [ 2, %6 ]
  %16 = urem i32 %9, %15
  %17 = icmp eq i32 %16, 0
  %18 = add nuw nsw i32 %15, 1
  br i1 %17, label %19, label %12

19:                                               ; preds = %12, %14, %6
  %20 = phi i32 [ %10, %6 ], [ 0, %14 ], [ 1, %12 ]
  %21 = add nuw nsw i32 %9, 2
  br label %24

22:                                               ; preds = %24
  %23 = icmp eq i32 %28, %7
  br i1 %23, label %29, label %24, !llvm.loop !11

24:                                               ; preds = %19, %22
  %25 = phi i32 [ 2, %19 ], [ %28, %22 ]
  %26 = urem i32 %21, %25
  %27 = icmp eq i32 %26, 0
  %28 = add nuw i32 %25, 1
  br i1 %27, label %29, label %22

29:                                               ; preds = %24, %22
  %30 = phi i32 [ 1, %22 ], [ 0, %24 ]
  %31 = mul nuw nsw i32 %30, %20
  %32 = icmp eq i32 %31, 1
  br i1 %32, label %33, label %38

33:                                               ; preds = %29
  %34 = icmp eq i32 %8, 0
  %35 = add nsw i32 %8, 1
  %36 = select i1 %34, i8* getelementptr inbounds ([6 x i8], [6 x i8]* @.str.1, i64 0, i64 0), i8* getelementptr inbounds ([7 x i8], [7 x i8]* @.str.2, i64 0, i64 0)
  %37 = call i32 (i8*, ...) @printf(i8* nonnull dereferenceable(1) %36, i32 %9, i32 %21)
  br label %38

38:                                               ; preds = %33, %29
  %39 = phi i32 [ %8, %29 ], [ %35, %33 ]
  %40 = add nuw nsw i32 %9, 1
  %41 = load i32, i32* %1, align 4, !tbaa !5
  %42 = add nsw i32 %41, -2
  %43 = icmp slt i32 %9, %42
  %44 = add nuw i32 %7, 1
  br i1 %43, label %6, label %45, !llvm.loop !12

45:                                               ; preds = %38
  %46 = icmp eq i32 %39, 0
  br i1 %46, label %47, label %49

47:                                               ; preds = %0, %45
  %48 = call i32 (i8*, ...) @printf(i8* nonnull dereferenceable(1) getelementptr inbounds ([6 x i8], [6 x i8]* @.str.3, i64 0, i64 0))
  br label %49

49:                                               ; preds = %47, %45
  %50 = load %struct._IO_FILE*, %struct._IO_FILE** @stdin, align 8, !tbaa !13
  %51 = call i32 @getc(%struct._IO_FILE* %50) #3
  %52 = load %struct._IO_FILE*, %struct._IO_FILE** @stdin, align 8, !tbaa !13
  %53 = call i32 @getc(%struct._IO_FILE* %52) #3
  call void @llvm.lifetime.end.p0i8(i64 4, i8* nonnull %2) #3
  ret i32 0
}

; Function Attrs: argmemonly mustprogress nofree nosync nounwind willreturn
declare void @llvm.lifetime.start.p0i8(i64 immarg, i8* nocapture) #1

; Function Attrs: nofree nounwind
declare noundef i32 @__isoc99_scanf(i8* nocapture noundef readonly, ...) local_unnamed_addr #2

; Function Attrs: nofree nounwind
declare noundef i32 @printf(i8* nocapture noundef readonly, ...) local_unnamed_addr #2

; Function Attrs: argmemonly mustprogress nofree nosync nounwind willreturn
declare void @llvm.lifetime.end.p0i8(i64 immarg, i8* nocapture) #1

; Function Attrs: nofree nounwind
declare noundef i32 @getc(%struct._IO_FILE* nocapture noundef) local_unnamed_addr #2


!llvm.module.flags = !{!0, !1, !2, !3}
!llvm.ident = !{!4}

!0 = !{i32 1, !"wchar_size", i32 4}
!1 = !{i32 7, !"PIC Level", i32 2}
!2 = !{i32 7, !"PIE Level", i32 2}
!3 = !{i32 7, !"uwtable", i32 1}
!4 = !{!"clang version 13.0.0"}
!5 = !{!6, !6, i64 0}
!6 = !{!"int", !7, i64 0}
!7 = !{!"omnipotent char", !8, i64 0}
!8 = !{!"Simple C/C++ TBAA"}
!9 = distinct !{!9, !10}
!10 = !{!"llvm.loop.mustprogress"}
!11 = distinct !{!11, !10}
!12 = distinct !{!12, !10}
!13 = !{!14, !14, i64 0}
!14 = !{!"any pointer", !7, i64 0}
